; Function Attrs: mustprogress uwtable
define void @_ZN7rocksdb17WriteCommittedTxn18SetCommitTimestampEm(ptr noalias sret(%"class.rocksdb::Status") align 8 %agg.result, ptr nocapture noundef nonnull align 8 dereferenceable(624) %this, i64 noundef %ts) unnamed_addr #3 align 2 personality ptr @__gxx_personality_v0 {
entry:
  %ref.tmp = alloca %"class.rocksdb::Slice", align 8
  %ref.tmp4 = alloca %"class.rocksdb::Slice", align 8
  %read_timestamp_ = getelementptr inbounds i8, ptr %this, i64 352
  %0 = load i64, ptr %read_timestamp_, align 8
  %cmp.not = icmp eq i64 %0, -1
  %cmp3.not = icmp ult i64 %0, %ts
  %or.cond = or i1 %cmp.not, %cmp3.not
  br i1 %or.cond, label %if.end, label %if.then

if.then:                                          ; preds = %entry
  store ptr @.str.1, ptr %ref.tmp, align 8
  %size_.i = getelementptr inbounds i8, ptr %ref.tmp, i64 8
  store i64 66, ptr %size_.i, align 8
  store ptr @.str.22, ptr %ref.tmp4, align 8
  %size_.i2 = getelementptr inbounds i8, ptr %ref.tmp4, i64 8
  store i64 0, ptr %size_.i2, align 8
  call void @_ZN7rocksdb6StatusC2ENS0_4CodeENS0_7SubCodeERKNS_5SliceES5_NS0_8SeverityE(ptr noundef nonnull align 8 dereferenceable(16) %agg.result, i8 noundef zeroext 4, i8 noundef zeroext 0, ptr noundef nonnull align 8 dereferenceable(16) %ref.tmp, ptr noundef nonnull align 8 dereferenceable(16) %ref.tmp4, i8 noundef zeroext 0)
  br label %return

if.end:                                           ; preds = %entry
  %commit_timestamp_ = getelementptr inbounds i8, ptr %this, i64 360
  store i64 %ts, ptr %commit_timestamp_, align 8
  %state_.i.i = getelementptr inbounds i8, ptr %agg.result, i64 8
  store ptr null, ptr %state_.i.i, align 8, !alias.scope !91
  tail call void @llvm.memset.p0.i64(ptr noundef nonnull align 8 dereferenceable(6) %agg.result, i8 0, i64 6, i1 false), !alias.scope !91
  br label %return

return:                                           ; preds = %if.end, %if.then
  ret void
}